; Function Attrs: nounwind uwtable
define void @jsimd_h2v1_merged_upsample(ptr noundef readonly captures(none) %0, ptr noundef %1, i32 noundef %2, ptr noundef %3) local_unnamed_addr #0 {
  %5 = tail call align 4 ptr @llvm.threadlocal.address.p0(ptr align 4 @simd_support)
  %6 = load i32, ptr %5, align 4, !tbaa !3
  %7 = icmp eq i32 %6, -1
  br i1 %7, label %8, label %9

8:                                                ; preds = %4
  tail call fastcc void @init_simd()
  br label %9

9:                                                ; preds = %8, %4
  %10 = getelementptr inbounds nuw i8, ptr %0, i64 64
  %11 = load i32, ptr %10, align 8, !tbaa !27
  %switch.tableidx = add i32 %11, -6
  %12 = icmp ult i32 %switch.tableidx, 10
  br i1 %12, label %switch.lookup, label %15

switch.lookup:                                    ; preds = %9
  %13 = zext nneg i32 %switch.tableidx to i64
  %switch.gep = getelementptr inbounds nuw [10 x ptr], ptr @switch.table.jsimd_h2v1_merged_upsample, i64 0, i64 %13
  %switch.load = load ptr, ptr %switch.gep, align 8
  %14 = zext nneg i32 %switch.tableidx to i64
  %switch.gep11 = getelementptr inbounds nuw [10 x ptr], ptr @switch.table.jsimd_h2v1_merged_upsample.5, i64 0, i64 %14
  %switch.load12 = load ptr, ptr %switch.gep11, align 8
  br label %15

15:                                               ; preds = %9, %switch.lookup
  %.010 = phi ptr [ %switch.load, %switch.lookup ], [ @jsimd_h2v1_merged_upsample_avx2, %9 ]
  %.0 = phi ptr [ %switch.load12, %switch.lookup ], [ @jsimd_h2v1_merged_upsample_sse2, %9 ]
  %16 = load i32, ptr %5, align 4, !tbaa !3
  %17 = and i32 %16, 128
  %.not = icmp eq i32 %17, 0
  %18 = getelementptr inbounds nuw i8, ptr %0, i64 136
  %19 = load i32, ptr %18, align 8, !tbaa !45
  %.0..010 = select i1 %.not, ptr %.0, ptr %.010
  tail call void %.0..010(i32 noundef %19, ptr noundef %1, i32 noundef %2, ptr noundef %3) #8
  ret void
}